target datalayout = "e-m:e-p270:32:32-p271:32:32-p272:64:64-i64:64-i128:128-f80:128-n8:16:32:64-S128"
target triple = "x86_64-pc-linux-gnu"

%"struct.icu_77::PCEBuffer" = type { [16 x %"struct.icu_77::PCEI"], ptr, i32, i32 }
%"struct.icu_77::PCEI" = type { i64, i32, i32 }

; Function Attrs: mustprogress nounwind uwtable
define void @_ZN6icu_779PCEBufferC2Ev(ptr noundef nonnull align 8 dereferenceable(272) %0) unnamed_addr #0 align 2 {
  %2 = alloca ptr, align 8
  store ptr %0, ptr %2, align 8, !tbaa !23
  %3 = load ptr, ptr %2, align 8
  %4 = getelementptr inbounds nuw %"struct.icu_77::PCEBuffer", ptr %3, i32 0, i32 0
  %5 = getelementptr inbounds [16 x %"struct.icu_77::PCEI"], ptr %4, i64 0, i64 0
  %6 = getelementptr inbounds nuw %"struct.icu_77::PCEBuffer", ptr %3, i32 0, i32 1
  store ptr %5, ptr %6, align 8, !tbaa !25
  %7 = getelementptr inbounds nuw %"struct.icu_77::PCEBuffer", ptr %3, i32 0, i32 2
  store i32 0, ptr %7, align 8, !tbaa !28
  %8 = getelementptr inbounds nuw %"struct.icu_77::PCEBuffer", ptr %3, i32 0, i32 3
  store i32 16, ptr %8, align 4, !tbaa !29
  ret void
}